target datalayout = "e-m:e-p270:32:32-p271:32:32-p272:64:64-i64:64-i128:128-f80:128-n8:16:32:64-S128"
target triple = "x86_64-pc-linux-gnu"

%struct.WasmEdge_Limit = type { i8, i8, i32, i32 }
%"class.WasmEdge::AST::Limit" = type { i8, i32, i32 }
%"class.WasmEdge::AST::MemoryType" = type { %"class.WasmEdge::AST::Limit" }

; Function Attrs: mustprogress nounwind uwtable
define linkonce_odr hidden void @_ZN8WasmEdge3AST5LimitC2Ej(ptr noundef nonnull align 4 dereferenceable(12) %0, i32 noundef %1) unnamed_addr #0 comdat align 2 {
  %3 = alloca ptr, align 8
  %4 = alloca i32, align 4
  store ptr %0, ptr %3, align 8
  store i32 %1, ptr %4, align 4
  %5 = load ptr, ptr %3, align 8
  %6 = getelementptr inbounds %"class.WasmEdge::AST::Limit", ptr %5, i32 0, i32 0
  store i8 0, ptr %6, align 4
  %7 = getelementptr inbounds %"class.WasmEdge::AST::Limit", ptr %5, i32 0, i32 1
  %8 = load i32, ptr %4, align 4
  store i32 %8, ptr %7, align 4
  %9 = getelementptr inbounds %"class.WasmEdge::AST::Limit", ptr %5, i32 0, i32 2
  %10 = load i32, ptr %4, align 4
  store i32 %10, ptr %9, align 4
  ret void
}

; Function Attrs: mustprogress nounwind uwtable
define linkonce_odr hidden void @_ZN8WasmEdge3AST5LimitC2Ejjb(ptr noundef nonnull align 4 dereferenceable(12) %0, i32 noundef %1, i32 noundef %2, i1 noundef zeroext %3) unnamed_addr #0 comdat align 2 {
  %5 = alloca ptr, align 8
  %6 = alloca i32, align 4
  %7 = alloca i32, align 4
  %8 = alloca i8, align 1
  store ptr %0, ptr %5, align 8
  store i32 %1, ptr %6, align 4
  store i32 %2, ptr %7, align 4
  %9 = zext i1 %3 to i8
  store i8 %9, ptr %8, align 1
  %10 = load ptr, ptr %5, align 8
  %11 = getelementptr inbounds %"class.WasmEdge::AST::Limit", ptr %10, i32 0, i32 1
  %12 = load i32, ptr %6, align 4
  store i32 %12, ptr %11, align 4
  %13 = getelementptr inbounds %"class.WasmEdge::AST::Limit", ptr %10, i32 0, i32 2
  %14 = load i32, ptr %7, align 4
  store i32 %14, ptr %13, align 4
  %15 = load i8, ptr %8, align 1
  %16 = trunc i8 %15 to i1
  br i1 %16, label %17, label %19

17:                                               ; preds = %4
  %18 = getelementptr inbounds %"class.WasmEdge::AST::Limit", ptr %10, i32 0, i32 0
  store i8 3, ptr %18, align 4
  br label %21

19:                                               ; preds = %4
  %20 = getelementptr inbounds %"class.WasmEdge::AST::Limit", ptr %10, i32 0, i32 0
  store i8 1, ptr %20, align 4
  br label %21

21:                                               ; preds = %19, %17
  ret void
}

; Function Attrs: mustprogress nounwind uwtable
define linkonce_odr hidden void @_ZN8WasmEdge3AST10MemoryTypeC2Ej(ptr noundef nonnull align 4 dereferenceable(12) %0, i32 noundef %1) unnamed_addr #0 comdat align 2 {
  %3 = alloca ptr, align 8
  %4 = alloca i32, align 4
  store ptr %0, ptr %3, align 8
  store i32 %1, ptr %4, align 4
  %5 = load ptr, ptr %3, align 8
  %6 = getelementptr inbounds %"class.WasmEdge::AST::MemoryType", ptr %5, i32 0, i32 0
  %7 = load i32, ptr %4, align 4
  call void @_ZN8WasmEdge3AST5LimitC2Ej(ptr noundef nonnull align 4 dereferenceable(12) %6, i32 noundef %7) #18
  ret void
}

; Function Attrs: mustprogress nounwind uwtable
define internal noundef ptr @_ZN12_GLOBAL__N_112toMemTypeCxtEPN8WasmEdge3AST10MemoryTypeE(ptr noundef %0) #0 {
  %2 = alloca ptr, align 8
  store ptr %0, ptr %2, align 8
  %3 = load ptr, ptr %2, align 8
  ret ptr %3
}

; Function Attrs: mustprogress nounwind uwtable
define linkonce_odr hidden void @_ZN8WasmEdge3AST10MemoryTypeC2Ejjb(ptr noundef nonnull align 4 dereferenceable(12) %0, i32 noundef %1, i32 noundef %2, i1 noundef zeroext %3) unnamed_addr #0 comdat align 2 {
  %5 = alloca ptr, align 8
  %6 = alloca i32, align 4
  %7 = alloca i32, align 4
  %8 = alloca i8, align 1
  store ptr %0, ptr %5, align 8
  store i32 %1, ptr %6, align 4
  store i32 %2, ptr %7, align 4
  %9 = zext i1 %3 to i8
  store i8 %9, ptr %8, align 1
  %10 = load ptr, ptr %5, align 8
  %11 = getelementptr inbounds %"class.WasmEdge::AST::MemoryType", ptr %10, i32 0, i32 0
  %12 = load i32, ptr %6, align 4
  %13 = load i32, ptr %7, align 4
  %14 = load i8, ptr %8, align 1
  %15 = trunc i8 %14 to i1
  call void @_ZN8WasmEdge3AST5LimitC2Ejjb(ptr noundef nonnull align 4 dereferenceable(12) %11, i32 noundef %12, i32 noundef %13, i1 noundef zeroext %15) #18
  ret void
}

; Function Attrs: mustprogress uwtable
define ptr @WasmEdge_MemoryTypeCreate(i64 %0, i32 %1) #1 {
  %3 = alloca ptr, align 8
  %4 = alloca %struct.WasmEdge_Limit, align 4
  %5 = alloca { i64, i32 }, align 4
  %6 = getelementptr inbounds { i64, i32 }, ptr %5, i32 0, i32 0
  store i64 %0, ptr %6, align 4
  %7 = getelementptr inbounds { i64, i32 }, ptr %5, i32 0, i32 1
  store i32 %1, ptr %7, align 4
  call void @llvm.memcpy.p0.p0.i64(ptr align 4 %4, ptr align 4 %5, i64 12, i1 false)
  %8 = getelementptr inbounds %struct.WasmEdge_Limit, ptr %4, i32 0, i32 1
  %9 = load i8, ptr %8, align 1
  %10 = trunc i8 %9 to i1
  br i1 %10, label %11, label %18

11:                                               ; preds = %2
  %12 = call noalias noundef nonnull ptr @_Znwm(i64 noundef 12) #21
  %13 = getelementptr inbounds %struct.WasmEdge_Limit, ptr %4, i32 0, i32 2
  %14 = load i32, ptr %13, align 4
  %15 = getelementptr inbounds %struct.WasmEdge_Limit, ptr %4, i32 0, i32 3
  %16 = load i32, ptr %15, align 4
  call void @_ZN8WasmEdge3AST10MemoryTypeC2Ejjb(ptr noundef nonnull align 4 dereferenceable(12) %12, i32 noundef %14, i32 noundef %16, i1 noundef zeroext true) #18
  %17 = call noundef ptr @_ZN12_GLOBAL__N_112toMemTypeCxtEPN8WasmEdge3AST10MemoryTypeE(ptr noundef %12) #18
  store ptr %17, ptr %3, align 8
  br label %34

18:                                               ; preds = %2
  %19 = getelementptr inbounds %struct.WasmEdge_Limit, ptr %4, i32 0, i32 0
  %20 = load i8, ptr %19, align 4
  %21 = trunc i8 %20 to i1
  br i1 %21, label %22, label %29

22:                                               ; preds = %18
  %23 = call noalias noundef nonnull ptr @_Znwm(i64 noundef 12) #21
  %24 = getelementptr inbounds %struct.WasmEdge_Limit, ptr %4, i32 0, i32 2
  %25 = load i32, ptr %24, align 4
  %26 = getelementptr inbounds %struct.WasmEdge_Limit, ptr %4, i32 0, i32 3
  %27 = load i32, ptr %26, align 4
  call void @_ZN8WasmEdge3AST10MemoryTypeC2Ejjb(ptr noundef nonnull align 4 dereferenceable(12) %23, i32 noundef %25, i32 noundef %27, i1 noundef zeroext false) #18
  %28 = call noundef ptr @_ZN12_GLOBAL__N_112toMemTypeCxtEPN8WasmEdge3AST10MemoryTypeE(ptr noundef %23) #18
  store ptr %28, ptr %3, align 8
  br label %34

29:                                               ; preds = %18
  %30 = call noalias noundef nonnull ptr @_Znwm(i64 noundef 12) #21
  %31 = getelementptr inbounds %struct.WasmEdge_Limit, ptr %4, i32 0, i32 2
  %32 = load i32, ptr %31, align 4
  call void @_ZN8WasmEdge3AST10MemoryTypeC2Ej(ptr noundef nonnull align 4 dereferenceable(12) %30, i32 noundef %32) #18
  %33 = call noundef ptr @_ZN12_GLOBAL__N_112toMemTypeCxtEPN8WasmEdge3AST10MemoryTypeE(ptr noundef %30) #18
  store ptr %33, ptr %3, align 8
  br label %34

34:                                               ; preds = %29, %22, %11
  %35 = load ptr, ptr %3, align 8
  ret ptr %35
}