; Function Attrs: mustprogress uwtable
define noalias noundef nonnull ptr @WasmEdge_MemoryTypeCreate(i64 %0, i32 %1) local_unnamed_addr #1 {
  %.sroa.33.0.extract.shift = lshr i64 %0, 32
  %.sroa.33.0.extract.trunc = trunc nuw i64 %.sroa.33.0.extract.shift to i32
  %3 = and i64 %0, 256
  %.not = icmp eq i64 %3, 0
  br i1 %.not, label %8, label %4

4:                                                ; preds = %2
  %5 = tail call noalias noundef nonnull dereferenceable(12) ptr @_Znwm(i64 noundef 12) #35
  %6 = getelementptr inbounds i8, ptr %5, i64 4
  store i32 %.sroa.33.0.extract.trunc, ptr %6, align 4
  %7 = getelementptr inbounds i8, ptr %5, i64 8
  store i32 %1, ptr %7, align 4
  store i8 3, ptr %5, align 4
  br label %17

8:                                                ; preds = %2
  %9 = trunc i64 %0 to i1
  %10 = tail call noalias noundef nonnull dereferenceable(12) ptr @_Znwm(i64 noundef 12) #35
  br i1 %9, label %11, label %14

11:                                               ; preds = %8
  %12 = getelementptr inbounds i8, ptr %10, i64 4
  store i32 %.sroa.33.0.extract.trunc, ptr %12, align 4
  %13 = getelementptr inbounds i8, ptr %10, i64 8
  store i32 %1, ptr %13, align 4
  store i8 1, ptr %10, align 4
  br label %17

14:                                               ; preds = %8
  store i8 0, ptr %10, align 4
  %15 = getelementptr inbounds i8, ptr %10, i64 4
  store i32 %.sroa.33.0.extract.trunc, ptr %15, align 4
  %16 = getelementptr inbounds i8, ptr %10, i64 8
  store i32 %.sroa.33.0.extract.trunc, ptr %16, align 4
  br label %17

17:                                               ; preds = %14, %11, %4
  %.0 = phi ptr [ %5, %4 ], [ %10, %11 ], [ %10, %14 ]
  ret ptr %.0
}